target datalayout = "e-m:e-p270:32:32-p271:32:32-p272:64:64-i64:64-i128:128-f80:128-n8:16:32:64-S128"
target triple = "x86_64-unknown-linux-gnu"

%struct.ResourceData = type { ptr, ptr, ptr, ptr, i32, i32, ptr, i32, i32, i8, i8, i8, i8 }

; Function Attrs: mustprogress nounwind uwtable
define internal noundef i32 @_ZL18makeResourceFrom16PK12ResourceDatai(ptr noundef %pResData, i32 noundef %res16) #2 {
entry:
  %pResData.addr = alloca ptr, align 8
  %res16.addr = alloca i32, align 4
  store ptr %pResData, ptr %pResData.addr, align 8
  store i32 %res16, ptr %res16.addr, align 4
  %0 = load i32, ptr %res16.addr, align 4
  %1 = load ptr, ptr %pResData.addr, align 8
  %poolStringIndex16Limit = getelementptr inbounds %struct.ResourceData, ptr %1, i32 0, i32 8
  %2 = load i32, ptr %poolStringIndex16Limit, align 4
  %cmp = icmp slt i32 %0, %2
  br i1 %cmp, label %if.then, label %if.else

if.then:                                          ; preds = %entry
  br label %if.end

if.else:                                          ; preds = %entry
  %3 = load i32, ptr %res16.addr, align 4
  %4 = load ptr, ptr %pResData.addr, align 8
  %poolStringIndex16Limit1 = getelementptr inbounds %struct.ResourceData, ptr %4, i32 0, i32 8
  %5 = load i32, ptr %poolStringIndex16Limit1, align 4
  %sub = sub nsw i32 %3, %5
  %6 = load ptr, ptr %pResData.addr, align 8
  %poolStringIndexLimit = getelementptr inbounds %struct.ResourceData, ptr %6, i32 0, i32 7
  %7 = load i32, ptr %poolStringIndexLimit, align 8
  %add = add nsw i32 %sub, %7
  store i32 %add, ptr %res16.addr, align 4
  br label %if.end

if.end:                                           ; preds = %if.else, %if.then
  %8 = load i32, ptr %res16.addr, align 4
  %or = or i32 1610612736, %8
  ret i32 %or
}

; Function Attrs: mustprogress uwtable
define i32 @res_getArrayItem_75(ptr noundef %pResData, i32 noundef %array, i32 noundef %indexR) #0 {
entry:
  %retval = alloca i32, align 4
  %pResData.addr = alloca ptr, align 8
  %array.addr = alloca i32, align 4
  %indexR.addr = alloca i32, align 4
  %offset = alloca i32, align 4
  %p = alloca ptr, align 8
  %p8 = alloca ptr, align 8
  store ptr %pResData, ptr %pResData.addr, align 8
  store i32 %array, ptr %array.addr, align 4
  store i32 %indexR, ptr %indexR.addr, align 4
  %0 = load i32, ptr %array.addr, align 4
  %and = and i32 %0, 268435455
  store i32 %and, ptr %offset, align 4
  %1 = load i32, ptr %indexR.addr, align 4
  %cmp = icmp slt i32 %1, 0
  br i1 %cmp, label %if.then, label %if.end

if.then:                                          ; preds = %entry
  store i32 -1, ptr %retval, align 4
  br label %return

if.end:                                           ; preds = %entry
  %2 = load i32, ptr %array.addr, align 4
  %shr = lshr i32 %2, 28
  switch i32 %shr, label %sw.default [
    i32 8, label %sw.bb
    i32 9, label %sw.bb7
  ]

sw.bb:                                            ; preds = %if.end
  %3 = load i32, ptr %offset, align 4
  %cmp1 = icmp ne i32 %3, 0
  br i1 %cmp1, label %if.then2, label %if.end6

if.then2:                                         ; preds = %sw.bb
  %4 = load ptr, ptr %pResData.addr, align 8
  %pRoot = getelementptr inbounds %struct.ResourceData, ptr %4, i32 0, i32 1
  %5 = load ptr, ptr %pRoot, align 8
  %6 = load i32, ptr %offset, align 4
  %idx.ext = zext i32 %6 to i64
  %add.ptr = getelementptr inbounds i32, ptr %5, i64 %idx.ext
  store ptr %add.ptr, ptr %p, align 8
  %7 = load i32, ptr %indexR.addr, align 4
  %8 = load ptr, ptr %p, align 8
  %9 = load i32, ptr %8, align 4
  %cmp3 = icmp slt i32 %7, %9
  br i1 %cmp3, label %if.then4, label %if.end5

if.then4:                                         ; preds = %if.then2
  %10 = load ptr, ptr %p, align 8
  %11 = load i32, ptr %indexR.addr, align 4
  %add = add nsw i32 1, %11
  %idxprom = sext i32 %add to i64
  %arrayidx = getelementptr inbounds i32, ptr %10, i64 %idxprom
  %12 = load i32, ptr %arrayidx, align 4
  store i32 %12, ptr %retval, align 4
  br label %return

if.end5:                                          ; preds = %if.then2
  br label %if.end6

if.end6:                                          ; preds = %if.end5, %sw.bb
  br label %sw.epilog

sw.bb7:                                           ; preds = %if.end
  %13 = load ptr, ptr %pResData.addr, align 8
  %p16BitUnits = getelementptr inbounds %struct.ResourceData, ptr %13, i32 0, i32 2
  %14 = load ptr, ptr %p16BitUnits, align 8
  %15 = load i32, ptr %offset, align 4
  %idx.ext9 = zext i32 %15 to i64
  %add.ptr10 = getelementptr inbounds i16, ptr %14, i64 %idx.ext9
  store ptr %add.ptr10, ptr %p8, align 8
  %16 = load i32, ptr %indexR.addr, align 4
  %17 = load ptr, ptr %p8, align 8
  %18 = load i16, ptr %17, align 2
  %conv = zext i16 %18 to i32
  %cmp11 = icmp slt i32 %16, %conv
  br i1 %cmp11, label %if.then12, label %if.end17

if.then12:                                        ; preds = %sw.bb7
  %19 = load ptr, ptr %pResData.addr, align 8
  %20 = load ptr, ptr %p8, align 8
  %21 = load i32, ptr %indexR.addr, align 4
  %add13 = add nsw i32 1, %21
  %idxprom14 = sext i32 %add13 to i64
  %arrayidx15 = getelementptr inbounds i16, ptr %20, i64 %idxprom14
  %22 = load i16, ptr %arrayidx15, align 2
  %conv16 = zext i16 %22 to i32
  %call = call noundef i32 @_ZL18makeResourceFrom16PK12ResourceDatai(ptr noundef %19, i32 noundef %conv16)
  store i32 %call, ptr %retval, align 4
  br label %return

if.end17:                                         ; preds = %sw.bb7
  br label %sw.epilog

sw.default:                                       ; preds = %if.end
  br label %sw.epilog

sw.epilog:                                        ; preds = %sw.default, %if.end17, %if.end6
  store i32 -1, ptr %retval, align 4
  br label %return

return:                                           ; preds = %sw.epilog, %if.then12, %if.then4, %if.then
  %23 = load i32, ptr %retval, align 4
  ret i32 %23
}