; Function Attrs: mustprogress nofree norecurse nosync nounwind willreturn memory(read, inaccessiblemem: none) uwtable
define i32 @res_getArrayItem_75(ptr nocapture noundef readonly %pResData, i32 noundef %array, i32 noundef %indexR) local_unnamed_addr #6 {
entry:
  %and = and i32 %array, 268435455
  %cmp = icmp slt i32 %indexR, 0
  br i1 %cmp, label %return, label %if.end

if.end:                                           ; preds = %entry
  %shr = lshr i32 %array, 28
  switch i32 %shr, label %return [
    i32 8, label %sw.bb
    i32 9, label %sw.bb7
  ]

sw.bb:                                            ; preds = %if.end
  %cmp1.not = icmp eq i32 %and, 0
  br i1 %cmp1.not, label %return, label %if.then2

if.then2:                                         ; preds = %sw.bb
  %pRoot = getelementptr inbounds i8, ptr %pResData, i64 8
  %0 = load ptr, ptr %pRoot, align 8
  %idx.ext = zext nneg i32 %and to i64
  %add.ptr = getelementptr inbounds i32, ptr %0, i64 %idx.ext
  %1 = load i32, ptr %add.ptr, align 4
  %cmp3 = icmp sgt i32 %1, %indexR
  br i1 %cmp3, label %if.then4, label %return

if.then4:                                         ; preds = %if.then2
  %2 = zext nneg i32 %indexR to i64
  %3 = getelementptr i32, ptr %add.ptr, i64 %2
  %arrayidx = getelementptr i8, ptr %3, i64 4
  %4 = load i32, ptr %arrayidx, align 4
  br label %return

sw.bb7:                                           ; preds = %if.end
  %p16BitUnits = getelementptr inbounds i8, ptr %pResData, i64 16
  %5 = load ptr, ptr %p16BitUnits, align 8
  %idx.ext9 = zext nneg i32 %and to i64
  %add.ptr10 = getelementptr inbounds i16, ptr %5, i64 %idx.ext9
  %6 = load i16, ptr %add.ptr10, align 2
  %conv = zext i16 %6 to i32
  %cmp11 = icmp ugt i32 %conv, %indexR
  br i1 %cmp11, label %if.then12, label %return

if.then12:                                        ; preds = %sw.bb7
  %7 = zext nneg i32 %indexR to i64
  %8 = getelementptr i16, ptr %add.ptr10, i64 %7
  %arrayidx15 = getelementptr i8, ptr %8, i64 2
  %9 = load i16, ptr %arrayidx15, align 2
  %conv16 = zext i16 %9 to i32
  %poolStringIndex16Limit.i = getelementptr inbounds i8, ptr %pResData, i64 52
  %10 = load i32, ptr %poolStringIndex16Limit.i, align 4
  %cmp.i = icmp sgt i32 %10, %conv16
  br i1 %cmp.i, label %_ZL18makeResourceFrom16PK12ResourceDatai.exit, label %if.else.i

if.else.i:                                        ; preds = %if.then12
  %sub.i = sub i32 %conv16, %10
  %poolStringIndexLimit.i = getelementptr inbounds i8, ptr %pResData, i64 48
  %11 = load i32, ptr %poolStringIndexLimit.i, align 8
  %add.i = add nsw i32 %sub.i, %11
  br label %_ZL18makeResourceFrom16PK12ResourceDatai.exit

_ZL18makeResourceFrom16PK12ResourceDatai.exit:    ; preds = %if.then12, %if.else.i
  %res16.addr.0.i = phi i32 [ %conv16, %if.then12 ], [ %add.i, %if.else.i ]
  %or.i = or i32 %res16.addr.0.i, 1610612736
  br label %return

return:                                           ; preds = %if.then2, %sw.bb, %sw.bb7, %if.end, %entry, %_ZL18makeResourceFrom16PK12ResourceDatai.exit, %if.then4
  %retval.0 = phi i32 [ %or.i, %_ZL18makeResourceFrom16PK12ResourceDatai.exit ], [ %4, %if.then4 ], [ -1, %entry ], [ -1, %if.end ], [ -1, %sw.bb7 ], [ -1, %sw.bb ], [ -1, %if.then2 ]
  ret i32 %retval.0
}